(dp1
Vf = np.random.multivariate_normal([0.0 for i in range(len(x))], np.outer(x, x)])
p2
I46
sVmatshow((1+np.outer(x, x))**3)
p3
I53
sVfor i in range(10):\u000a    for j in range(10):\u000a        rbfkern[i,j] = k(np.array(i), np.array(j))
p4
I75
s.